target datalayout = "e-m:e-p270:32:32-p271:32:32-p272:64:64-i64:64-i128:128-f80:128-n8:16:32:64-S128"
target triple = "x86_64-pc-linux-gnu"

%struct.prov_aes_gcm_siv_ctx_st = type { ptr, ptr, ptr, ptr, ptr, i64, i64, [32 x i8], [32 x i8], [16 x i8], [16 x i8], [16 x i8], [12 x i8], [16 x %struct.u128], i8 }
%struct.u128 = type { i64, i64 }
%struct.prov_cipher_hw_aes_gcm_siv_st = type { ptr, ptr, ptr, ptr }

@.str = private unnamed_addr constant [66 x i8] c"../openssl/providers/implementations/ciphers/cipher_aes_gcm_siv.c\00", align 1
@__func__.ossl_aes_gcm_siv_cipher = private unnamed_addr constant [24 x i8] c"ossl_aes_gcm_siv_cipher\00", align 1

; Function Attrs: nounwind uwtable
define internal i32 @ossl_aes_gcm_siv_cipher(ptr noundef %0, ptr noundef %1, ptr noundef %2, i64 noundef %3, ptr noundef %4, i64 noundef %5) #0 {
  %7 = alloca i32, align 4
  %8 = alloca ptr, align 8
  %9 = alloca ptr, align 8
  %10 = alloca ptr, align 8
  %11 = alloca i64, align 8
  %12 = alloca ptr, align 8
  %13 = alloca i64, align 8
  %14 = alloca ptr, align 8
  %15 = alloca i32, align 4
  %16 = alloca i32, align 4
  store ptr %0, ptr %8, align 8, !tbaa !3
  store ptr %1, ptr %9, align 8, !tbaa !24
  store ptr %2, ptr %10, align 8, !tbaa !28
  store i64 %3, ptr %11, align 8, !tbaa !25
  store ptr %4, ptr %12, align 8, !tbaa !24
  store i64 %5, ptr %13, align 8, !tbaa !25
  call void @llvm.lifetime.start.p0(i64 8, ptr %14) #5
  %17 = load ptr, ptr %8, align 8, !tbaa !3
  store ptr %17, ptr %14, align 8, !tbaa !7
  call void @llvm.lifetime.start.p0(i64 4, ptr %15) #5
  store i32 0, ptr %15, align 4, !tbaa !30
  %18 = call i32 @ossl_prov_is_running()
  %19 = icmp ne i32 %18, 0
  br i1 %19, label %21, label %20

20:                                               ; preds = %6
  store i32 0, ptr %7, align 4
  store i32 1, ptr %16, align 4
  br label %55

21:                                               ; preds = %6
  %22 = load i64, ptr %11, align 8, !tbaa !25
  %23 = load i64, ptr %13, align 8, !tbaa !25
  %24 = icmp ult i64 %22, %23
  br i1 %24, label %25, label %26

25:                                               ; preds = %21
  call void @ERR_new()
  call void @ERR_set_debug(ptr noundef @.str, i32 noundef 148, ptr noundef @__func__.ossl_aes_gcm_siv_cipher)
  call void (i32, i32, ptr, ...) @ERR_set_error(i32 noundef 57, i32 noundef 106, ptr noundef null)
  store i32 0, ptr %7, align 4
  store i32 1, ptr %16, align 4
  br label %55

26:                                               ; preds = %21
  %27 = load ptr, ptr %14, align 8, !tbaa !7
  %28 = getelementptr inbounds nuw %struct.prov_aes_gcm_siv_ctx_st, ptr %27, i32 0, i32 1
  %29 = load ptr, ptr %28, align 8, !tbaa !19
  %30 = getelementptr inbounds nuw %struct.prov_cipher_hw_aes_gcm_siv_st, ptr %29, i32 0, i32 1
  %31 = load ptr, ptr %30, align 8, !tbaa !31
  %32 = load ptr, ptr %14, align 8, !tbaa !7
  %33 = load ptr, ptr %9, align 8, !tbaa !24
  %34 = load ptr, ptr %12, align 8, !tbaa !24
  %35 = load i64, ptr %13, align 8, !tbaa !25
  %36 = call i32 %31(ptr noundef %32, ptr noundef %33, ptr noundef %34, i64 noundef %35)
  %37 = icmp ne i32 %36, 0
  %38 = xor i1 %37, true
  %39 = zext i1 %38 to i32
  %40 = load i32, ptr %15, align 4, !tbaa !30
  %41 = or i32 %40, %39
  store i32 %41, ptr %15, align 4, !tbaa !30
  %42 = load ptr, ptr %10, align 8, !tbaa !28
  %43 = icmp ne ptr %42, null
  br i1 %43, label %44, label %50

44:                                               ; preds = %26
  %45 = load i32, ptr %15, align 4, !tbaa !30
  %46 = icmp ne i32 %45, 0
  br i1 %46, label %50, label %47

47:                                               ; preds = %44
  %48 = load i64, ptr %13, align 8, !tbaa !25
  %49 = load ptr, ptr %10, align 8, !tbaa !28
  store i64 %48, ptr %49, align 8, !tbaa !25
  br label %50

50:                                               ; preds = %47, %44, %26
  %51 = load i32, ptr %15, align 4, !tbaa !30
  %52 = icmp ne i32 %51, 0
  %53 = xor i1 %52, true
  %54 = zext i1 %53 to i32
  store i32 %54, ptr %7, align 4
  store i32 1, ptr %16, align 4
  br label %55

55:                                               ; preds = %50, %25, %20
  call void @llvm.lifetime.end.p0(i64 4, ptr %15) #5
  call void @llvm.lifetime.end.p0(i64 8, ptr %14) #5
  %56 = load i32, ptr %7, align 4
  ret i32 %56
}