; Function Attrs: nounwind uwtable
define internal range(i32 0, 2) i32 @ossl_aes_gcm_siv_cipher(ptr noundef %0, ptr noundef %1, ptr noundef writeonly captures(address_is_null) %2, i64 noundef %3, ptr noundef %4, i64 noundef %5) #0 {
  %7 = tail call i32 @ossl_prov_is_running() #5
  %.not = icmp eq i32 %7, 0
  br i1 %.not, label %22, label %8

8:                                                ; preds = %6
  %9 = icmp ult i64 %3, %5
  br i1 %9, label %10, label %11

10:                                               ; preds = %8
  tail call void @ERR_new() #5
  tail call void @ERR_set_debug(ptr noundef nonnull @.str, i32 noundef 148, ptr noundef nonnull @__func__.ossl_aes_gcm_siv_cipher) #5
  tail call void (i32, i32, ptr, ...) @ERR_set_error(i32 noundef 57, i32 noundef 106, ptr noundef null) #5
  br label %22

11:                                               ; preds = %8
  %12 = getelementptr inbounds nuw i8, ptr %0, i64 8
  %13 = load ptr, ptr %12, align 8, !tbaa !15
  %14 = getelementptr inbounds nuw i8, ptr %13, i64 8
  %15 = load ptr, ptr %14, align 8, !tbaa !24
  %16 = tail call i32 %15(ptr noundef %0, ptr noundef %1, ptr noundef %4, i64 noundef %5) #5
  %17 = icmp ne i32 %16, 0
  %18 = icmp ne ptr %2, null
  %or.cond.not = select i1 %18, i1 %17, i1 false
  br i1 %or.cond.not, label %19, label %20

19:                                               ; preds = %11
  store i64 %5, ptr %2, align 8, !tbaa !25
  br label %20

20:                                               ; preds = %19, %11
  %21 = zext i1 %17 to i32
  br label %22

22:                                               ; preds = %6, %20, %10
  %.0 = phi i32 [ 0, %10 ], [ %21, %20 ], [ 0, %6 ]
  ret i32 %.0
}